; Function Attrs: mustprogress uwtable
define noundef zeroext i1 @_ZNK7testing10TestResult7SkippedEv(ptr noundef nonnull readonly align 8 captures(none) dereferenceable(128) %0) local_unnamed_addr #3 align 2 {
  %2 = getelementptr inbounds nuw i8, ptr %0, i64 56
  %3 = getelementptr inbounds nuw i8, ptr %0, i64 64
  %4 = load ptr, ptr %3, align 8, !tbaa !947
  %5 = load ptr, ptr %2, align 8, !tbaa !949
  %6 = ptrtoint ptr %4 to i64
  %7 = ptrtoint ptr %5 to i64
  %8 = sub i64 %6, %7
  %9 = sdiv exact i64 %8, 112
  %10 = trunc i64 %9 to i32
  %.not10.i = icmp sgt i32 %10, 0
  br i1 %.not10.i, label %.lr.ph.preheader.i, label %.loopexit

.lr.ph.preheader.i:                               ; preds = %1
  %wide.trip.count.i = and i64 %9, 2147483647
  br label %.lr.ph.i

11:                                               ; preds = %_ZNK7testing10TestResult17GetTestPartResultEi.exit.i
  %indvars.iv.next.i = add nuw nsw i64 %indvars.iv.i, 1
  %exitcond16.not.i = icmp eq i64 %indvars.iv.next.i, %wide.trip.count.i
  br i1 %exitcond16.not.i, label %.loopexit, label %.lr.ph.i, !llvm.loop !1135

.lr.ph.i:                                         ; preds = %11, %.lr.ph.preheader.i
  %indvars.iv.i = phi i64 [ 0, %.lr.ph.preheader.i ], [ %indvars.iv.next.i, %11 ]
  %exitcond.not.i = icmp eq i64 %indvars.iv.i, %9
  br i1 %exitcond.not.i, label %12, label %_ZNK7testing10TestResult17GetTestPartResultEi.exit.i

12:                                               ; preds = %.lr.ph.i
  tail call void (ptr, ...) @_ZSt24__throw_out_of_range_fmtPKcz(ptr noundef nonnull @.str.548, i64 noundef %9, i64 noundef %9) #60
  unreachable

_ZNK7testing10TestResult17GetTestPartResultEi.exit.i: ; preds = %.lr.ph.i
  %13 = getelementptr inbounds nuw %"class.testing::TestPartResult", ptr %5, i64 %indvars.iv.i
  %14 = load i32, ptr %13, align 8, !tbaa !946
  %15 = add i32 %14, -1
  %spec.select.i.i = icmp ult i32 %15, 2
  br i1 %spec.select.i.i, label %_ZNK7testing10TestResult6FailedEv.exit, label %11

.loopexit:                                        ; preds = %11, %1
  %.not7.i = icmp eq ptr %5, %4
  br i1 %.not7.i, label %_ZNK7testing10TestResult6FailedEv.exit, label %.lr.ph.i1

.lr.ph.i1:                                        ; preds = %.loopexit, %.lr.ph.i1
  %.09.i = phi i32 [ %spec.select.i, %.lr.ph.i1 ], [ 0, %.loopexit ]
  %.sroa.04.08.i = phi ptr [ %19, %.lr.ph.i1 ], [ %5, %.loopexit ]
  %16 = load i32, ptr %.sroa.04.08.i, align 8, !tbaa !946
  %17 = icmp eq i32 %16, 3
  %18 = zext i1 %17 to i32
  %spec.select.i = add nuw nsw i32 %.09.i, %18
  %19 = getelementptr inbounds nuw i8, ptr %.sroa.04.08.i, i64 112
  %.not.i = icmp eq ptr %19, %4
  br i1 %.not.i, label %_ZN7testing8internal7CountIfISt6vectorINS_14TestPartResultESaIS3_EEPFbRKS3_EEEiRKT_T0_.exit.loopexit, label %.lr.ph.i1, !llvm.loop !1136

_ZN7testing8internal7CountIfISt6vectorINS_14TestPartResultESaIS3_EEPFbRKS3_EEEiRKT_T0_.exit.loopexit: ; preds = %.lr.ph.i1
  %20 = icmp ne i32 %spec.select.i, 0
  br label %_ZNK7testing10TestResult6FailedEv.exit

_ZNK7testing10TestResult6FailedEv.exit:           ; preds = %_ZNK7testing10TestResult17GetTestPartResultEi.exit.i, %.loopexit, %_ZN7testing8internal7CountIfISt6vectorINS_14TestPartResultESaIS3_EEPFbRKS3_EEEiRKT_T0_.exit.loopexit
  %21 = phi i1 [ false, %.loopexit ], [ %20, %_ZN7testing8internal7CountIfISt6vectorINS_14TestPartResultESaIS3_EEPFbRKS3_EEEiRKT_T0_.exit.loopexit ], [ false, %_ZNK7testing10TestResult17GetTestPartResultEi.exit.i ]
  ret i1 %21
}